; Function Attrs: mustprogress nofree norecurse nosync nounwind willreturn memory(none) uwtable
define internal fastcc noundef range(i32 0, 2) i32 @_ZL21stbi__mad4sizes_validiiiii(i32 noundef %0, i32 noundef %1, i32 noundef %2, i32 noundef range(i32 -268435456, 268435456) %3) unnamed_addr #14 {
  %5 = or i32 %1, %0
  %or.cond.not.i = icmp sgt i32 %5, -1
  br i1 %or.cond.not.i, label %6, label %_ZL21stbi__mul2sizes_validii.exit.thread

6:                                                ; preds = %4
  %7 = icmp eq i32 %1, 0
  br i1 %7, label %_ZL21stbi__mul2sizes_validii.exit.thread24, label %_ZL21stbi__mul2sizes_validii.exit

_ZL21stbi__mul2sizes_validii.exit:                ; preds = %6
  %8 = udiv i32 2147483647, %1
  %.not37 = icmp sgt i32 %0, %8
  br i1 %.not37, label %_ZL21stbi__mul2sizes_validii.exit.thread, label %_ZL21stbi__mul2sizes_validii.exit.thread24

_ZL21stbi__mul2sizes_validii.exit.thread24:       ; preds = %6, %_ZL21stbi__mul2sizes_validii.exit
  %9 = mul nsw i32 %1, %0
  %10 = or i32 %2, %9
  %or.cond.not.i16 = icmp sgt i32 %10, -1
  br i1 %or.cond.not.i16, label %11, label %_ZL21stbi__mul2sizes_validii.exit.thread

11:                                               ; preds = %_ZL21stbi__mul2sizes_validii.exit.thread24
  %12 = icmp eq i32 %2, 0
  br i1 %12, label %_ZL21stbi__mul2sizes_validii.exit18.thread29, label %_ZL21stbi__mul2sizes_validii.exit18

_ZL21stbi__mul2sizes_validii.exit18:              ; preds = %11
  %13 = udiv i32 2147483647, %2
  %.not = icmp sgt i32 %9, %13
  br i1 %.not, label %_ZL21stbi__mul2sizes_validii.exit.thread, label %_ZL21stbi__mul2sizes_validii.exit18.thread29

_ZL21stbi__mul2sizes_validii.exit18.thread29:     ; preds = %11, %_ZL21stbi__mul2sizes_validii.exit18
  %14 = mul nsw i32 %9, %2
  %15 = or i32 %3, %14
  %or.cond.not.i19 = icmp sgt i32 %15, -1
  br i1 %or.cond.not.i19, label %16, label %_ZL21stbi__mul2sizes_validii.exit.thread

16:                                               ; preds = %_ZL21stbi__mul2sizes_validii.exit18.thread29
  %17 = icmp eq i32 %3, 0
  br i1 %17, label %_ZL21stbi__mul2sizes_validii.exit21.thread34, label %_ZL21stbi__mul2sizes_validii.exit21

_ZL21stbi__mul2sizes_validii.exit21:              ; preds = %16
  %18 = udiv i32 2147483647, %3
  %.not38 = icmp sgt i32 %14, %18
  br i1 %.not38, label %_ZL21stbi__mul2sizes_validii.exit.thread, label %_ZL21stbi__mul2sizes_validii.exit21.thread34

_ZL21stbi__mul2sizes_validii.exit21.thread34:     ; preds = %16, %_ZL21stbi__mul2sizes_validii.exit21
  br label %_ZL21stbi__mul2sizes_validii.exit.thread

_ZL21stbi__mul2sizes_validii.exit.thread:         ; preds = %_ZL21stbi__mul2sizes_validii.exit18.thread29, %_ZL21stbi__mul2sizes_validii.exit.thread24, %4, %_ZL21stbi__mul2sizes_validii.exit21.thread34, %_ZL21stbi__mul2sizes_validii.exit21, %_ZL21stbi__mul2sizes_validii.exit18, %_ZL21stbi__mul2sizes_validii.exit
  %19 = phi i32 [ 0, %_ZL21stbi__mul2sizes_validii.exit21 ], [ 0, %_ZL21stbi__mul2sizes_validii.exit18 ], [ 0, %_ZL21stbi__mul2sizes_validii.exit ], [ 1, %_ZL21stbi__mul2sizes_validii.exit21.thread34 ], [ 0, %4 ], [ 0, %_ZL21stbi__mul2sizes_validii.exit.thread24 ], [ 0, %_ZL21stbi__mul2sizes_validii.exit18.thread29 ]
  ret i32 %19
}